target datalayout = "e-m:e-p270:32:32-p271:32:32-p272:64:64-i64:64-i128:128-f80:128-n8:16:32:64-S128"
target triple = "x86_64-unknown-linux-gnu"

%"class.QuantLib::Settings" = type <{ %"class.QuantLib::Settings::DateProxy", i8, %"class.boost::optional", i8, [4 x i8] }>
%"class.QuantLib::Settings::DateProxy" = type { %"class.QuantLib::ObservableValue" }
%"class.QuantLib::ObservableValue" = type { %"class.QuantLib::Date", %"class.boost::shared_ptr" }
%"class.QuantLib::Date" = type { i64 }
%"class.boost::shared_ptr" = type { ptr, %"class.boost::detail::shared_count" }
%"class.boost::detail::shared_count" = type { ptr }
%"class.boost::optional" = type { %"class.boost::optional_detail::tc_optional_base" }
%"class.boost::optional_detail::tc_optional_base" = type { i8, i8 }
%"class.std::set" = type { %"class.std::_Rb_tree" }
%"class.std::_Rb_tree" = type { %"struct.std::_Rb_tree<boost::shared_ptr<QuantLib::Observable>, boost::shared_ptr<QuantLib::Observable>, std::_Identity<boost::shared_ptr<QuantLib::Observable>>, std::less<boost::shared_ptr<QuantLib::Observable>>>::_Rb_tree_impl" }
%"struct.std::_Rb_tree<boost::shared_ptr<QuantLib::Observable>, boost::shared_ptr<QuantLib::Observable>, std::_Identity<boost::shared_ptr<QuantLib::Observable>>, std::less<boost::shared_ptr<QuantLib::Observable>>>::_Rb_tree_impl" = type { [8 x i8], %"struct.std::_Rb_tree_header" }
%"struct.std::_Rb_tree_header" = type { %"struct.std::_Rb_tree_node_base", i64 }
%"struct.std::_Rb_tree_node_base" = type { i32, ptr, ptr, ptr }
%"class.QuantLib::TermStructure" = type { %"class.QuantLib::Extrapolator.base", i8, i8, %"class.QuantLib::Calendar", %"class.QuantLib::Date", i32, %"class.QuantLib::DayCounter", %"class.QuantLib::Observer", %"class.QuantLib::Observable" }
%"class.QuantLib::Extrapolator.base" = type <{ ptr, i8 }>
%"class.QuantLib::Calendar" = type { %"class.boost::shared_ptr.7" }
%"class.boost::shared_ptr.7" = type { ptr, %"class.boost::detail::shared_count" }
%"class.QuantLib::DayCounter" = type { %"class.boost::shared_ptr.6" }
%"class.boost::shared_ptr.6" = type { ptr, %"class.boost::detail::shared_count" }
%"class.QuantLib::Observer" = type { ptr, %"class.std::set" }
%"class.QuantLib::Observable" = type { ptr, %"class.std::set.0" }
%"class.std::set.0" = type { %"class.std::_Rb_tree.1" }
%"class.std::_Rb_tree.1" = type { %"struct.std::_Rb_tree<QuantLib::Observer *, QuantLib::Observer *, std::_Identity<QuantLib::Observer *>, std::less<QuantLib::Observer *>>::_Rb_tree_impl" }
%"struct.std::_Rb_tree<QuantLib::Observer *, QuantLib::Observer *, std::_Identity<QuantLib::Observer *>, std::less<QuantLib::Observer *>>::_Rb_tree_impl" = type { [8 x i8], %"struct.std::_Rb_tree_header" }

@__dso_handle = external hidden global i8
@_ZZN8QuantLib9SingletonINS_8SettingsESt17integral_constantIbLb0EEE8instanceEvE8instance = linkonce_odr global %"class.QuantLib::Settings" zeroinitializer, comdat, align 8
@_ZGVZN8QuantLib9SingletonINS_8SettingsESt17integral_constantIbLb0EEE8instanceEvE8instance = linkonce_odr global i64 0, comdat, align 8

; Function Attrs: inlinehint mustprogress nounwind uwtable
define linkonce_odr noundef i64 @_ZNK8QuantLib4Date12serialNumberEv(ptr noundef nonnull align 8 dereferenceable(8) %this) #6 comdat align 2 {
entry:
  %this.addr = alloca ptr, align 8
  store ptr %this, ptr %this.addr, align 8, !tbaa !3
  %this1 = load ptr, ptr %this.addr, align 8
  %serialNumber_ = getelementptr inbounds nuw %"class.QuantLib::Date", ptr %this1, i32 0, i32 0
  %0 = load i64, ptr %serialNumber_, align 8, !tbaa !75
  ret i64 %0
}

; Function Attrs: inlinehint mustprogress uwtable
define linkonce_odr noundef zeroext i1 @_ZN8QuantLibeqERKNS_4DateES2_(ptr noundef nonnull align 8 dereferenceable(8) %d1, ptr noundef nonnull align 8 dereferenceable(8) %d2) #8 comdat {
entry:
  %d1.addr = alloca ptr, align 8
  %d2.addr = alloca ptr, align 8
  store ptr %d1, ptr %d1.addr, align 8, !tbaa !3
  store ptr %d2, ptr %d2.addr, align 8, !tbaa !3
  %0 = load ptr, ptr %d1.addr, align 8, !tbaa !3
  %call = call noundef i64 @_ZNK8QuantLib4Date12serialNumberEv(ptr noundef nonnull align 8 dereferenceable(8) %0)
  %1 = load ptr, ptr %d2.addr, align 8, !tbaa !3
  %call1 = call noundef i64 @_ZNK8QuantLib4Date12serialNumberEv(ptr noundef nonnull align 8 dereferenceable(8) %1)
  %cmp = icmp eq i64 %call, %call1
  ret i1 %cmp
}

; Function Attrs: mustprogress nounwind uwtable
define linkonce_odr noundef nonnull align 8 dereferenceable(8) ptr @_ZNK8QuantLib15ObservableValueINS_4DateEE5valueEv(ptr noundef nonnull align 8 dereferenceable(24) %this) #1 comdat align 2 {
entry:
  %this.addr = alloca ptr, align 8
  store ptr %this, ptr %this.addr, align 8, !tbaa !3
  %this1 = load ptr, ptr %this.addr, align 8
  %value_ = getelementptr inbounds nuw %"class.QuantLib::ObservableValue", ptr %this1, i32 0, i32 0
  ret ptr %value_
}

; Function Attrs: inlinehint mustprogress uwtable
define linkonce_odr i64 @_ZNK8QuantLib8Settings9DateProxycvNS_4DateEEv(ptr noundef nonnull align 8 dereferenceable(24) %this) #8 comdat align 2 {
entry:
  %retval = alloca %"class.QuantLib::Date", align 8
  %this.addr = alloca ptr, align 8
  %ref.tmp = alloca %"class.QuantLib::Date", align 8
  store ptr %this, ptr %this.addr, align 8, !tbaa !3
  %this1 = load ptr, ptr %this.addr, align 8
  %call = call noundef nonnull align 8 dereferenceable(8) ptr @_ZNK8QuantLib15ObservableValueINS_4DateEE5valueEv(ptr noundef nonnull align 8 dereferenceable(24) %this1)
  call void @llvm.lifetime.start.p0(i64 8, ptr %ref.tmp) #9
  call void @_ZN8QuantLib4DateC1Ev(ptr noundef nonnull align 8 dereferenceable(8) %ref.tmp)
  %call2 = call noundef zeroext i1 @_ZN8QuantLibeqERKNS_4DateES2_(ptr noundef nonnull align 8 dereferenceable(8) %call, ptr noundef nonnull align 8 dereferenceable(8) %ref.tmp)
  call void @llvm.lifetime.end.p0(i64 8, ptr %ref.tmp) #9
  br i1 %call2, label %if.then, label %if.else

if.then:                                          ; preds = %entry
  %call3 = call i64 @_ZN8QuantLib4Date10todaysDateEv()
  %coerce.dive = getelementptr inbounds nuw %"class.QuantLib::Date", ptr %retval, i32 0, i32 0
  store i64 %call3, ptr %coerce.dive, align 8
  br label %return

if.else:                                          ; preds = %entry
  %call4 = call noundef nonnull align 8 dereferenceable(8) ptr @_ZNK8QuantLib15ObservableValueINS_4DateEE5valueEv(ptr noundef nonnull align 8 dereferenceable(24) %this1)
  call void @llvm.memcpy.p0.p0.i64(ptr align 8 %retval, ptr align 8 %call4, i64 8, i1 false), !tbaa.struct !26
  br label %return

return:                                           ; preds = %if.else, %if.then
  %coerce.dive5 = getelementptr inbounds nuw %"class.QuantLib::Date", ptr %retval, i32 0, i32 0
  %0 = load i64, ptr %coerce.dive5, align 8
  ret i64 %0
}

; Function Attrs: inlinehint mustprogress nounwind uwtable
define linkonce_odr noundef nonnull align 8 dereferenceable(24) ptr @_ZN8QuantLib8Settings14evaluationDateEv(ptr noundef nonnull align 8 dereferenceable(28) %this) #6 comdat align 2 {
entry:
  %this.addr = alloca ptr, align 8
  store ptr %this, ptr %this.addr, align 8, !tbaa !3
  %this1 = load ptr, ptr %this.addr, align 8
  %evaluationDate_ = getelementptr inbounds nuw %"class.QuantLib::Settings", ptr %this1, i32 0, i32 0
  ret ptr %evaluationDate_
}

; Function Attrs: mustprogress uwtable
define linkonce_odr noundef nonnull align 8 dereferenceable(28) ptr @_ZN8QuantLib9SingletonINS_8SettingsESt17integral_constantIbLb0EEE8instanceEv() #2 comdat align 2 personality ptr @__gxx_personality_v0 {
entry:
  %exn.slot = alloca ptr, align 8
  %ehselector.slot = alloca i32, align 4
  %0 = load atomic i8, ptr @_ZGVZN8QuantLib9SingletonINS_8SettingsESt17integral_constantIbLb0EEE8instanceEvE8instance acquire, align 8
  %guard.uninitialized = icmp eq i8 %0, 0
  br i1 %guard.uninitialized, label %init.check, label %init.end, !prof !30

init.check:                                       ; preds = %entry
  %1 = call i32 @__cxa_guard_acquire(ptr @_ZGVZN8QuantLib9SingletonINS_8SettingsESt17integral_constantIbLb0EEE8instanceEvE8instance) #9
  %tobool = icmp ne i32 %1, 0
  br i1 %tobool, label %init, label %init.end

init:                                             ; preds = %init.check
  invoke void @_ZN8QuantLib8SettingsC1Ev(ptr noundef nonnull align 8 dereferenceable(28) @_ZZN8QuantLib9SingletonINS_8SettingsESt17integral_constantIbLb0EEE8instanceEvE8instance)
          to label %invoke.cont unwind label %lpad

invoke.cont:                                      ; preds = %init
  %2 = call i32 @__cxa_atexit(ptr @_ZN8QuantLib8SettingsD2Ev, ptr @_ZZN8QuantLib9SingletonINS_8SettingsESt17integral_constantIbLb0EEE8instanceEvE8instance, ptr @__dso_handle) #9
  call void @__cxa_guard_release(ptr @_ZGVZN8QuantLib9SingletonINS_8SettingsESt17integral_constantIbLb0EEE8instanceEvE8instance) #9
  br label %init.end

init.end:                                         ; preds = %invoke.cont, %init.check, %entry
  ret ptr @_ZZN8QuantLib9SingletonINS_8SettingsESt17integral_constantIbLb0EEE8instanceEvE8instance

lpad:                                             ; preds = %init
  %3 = landingpad { ptr, i32 }
          cleanup
  %4 = extractvalue { ptr, i32 } %3, 0
  store ptr %4, ptr %exn.slot, align 8
  %5 = extractvalue { ptr, i32 } %3, 1
  store i32 %5, ptr %ehselector.slot, align 4
  call void @__cxa_guard_abort(ptr @_ZGVZN8QuantLib9SingletonINS_8SettingsESt17integral_constantIbLb0EEE8instanceEvE8instance) #9
  br label %eh.resume

eh.resume:                                        ; preds = %lpad
  %exn = load ptr, ptr %exn.slot, align 8
  %sel = load i32, ptr %ehselector.slot, align 4
  %lpad.val = insertvalue { ptr, i32 } poison, ptr %exn, 0
  %lpad.val1 = insertvalue { ptr, i32 } %lpad.val, i32 %sel, 1
  resume { ptr, i32 } %lpad.val1
}

; Function Attrs: mustprogress uwtable
define noundef nonnull align 8 dereferenceable(8) ptr @_ZNK8QuantLib13TermStructure13referenceDateEv(ptr noundef nonnull align 8 dereferenceable(64) %this) unnamed_addr #2 align 2 personality ptr @__gxx_personality_v0 {
entry:
  %this.addr = alloca ptr, align 8
  %today = alloca %"class.QuantLib::Date", align 8
  %ref.tmp = alloca %"class.QuantLib::Date", align 8
  %ref.tmp4 = alloca %"class.QuantLib::Calendar", align 8
  %exn.slot = alloca ptr, align 8
  %ehselector.slot = alloca i32, align 4
  store ptr %this, ptr %this.addr, align 8, !tbaa !3
  %this1 = load ptr, ptr %this.addr, align 8
  %updated_ = getelementptr inbounds nuw %"class.QuantLib::TermStructure", ptr %this1, i32 0, i32 2
  %0 = load i8, ptr %updated_, align 2, !tbaa !23, !range !31, !noundef !32
  %loadedv = trunc i8 %0 to i1
  br i1 %loadedv, label %if.end, label %if.then

if.then:                                          ; preds = %entry
  call void @llvm.lifetime.start.p0(i64 8, ptr %today) #9
  %call = call noundef nonnull align 8 dereferenceable(28) ptr @_ZN8QuantLib9SingletonINS_8SettingsESt17integral_constantIbLb0EEE8instanceEv()
  %call2 = call noundef nonnull align 8 dereferenceable(24) ptr @_ZN8QuantLib8Settings14evaluationDateEv(ptr noundef nonnull align 8 dereferenceable(28) %call)
  %call3 = call i64 @_ZNK8QuantLib8Settings9DateProxycvNS_4DateEEv(ptr noundef nonnull align 8 dereferenceable(24) %call2)
  %coerce.dive = getelementptr inbounds nuw %"class.QuantLib::Date", ptr %today, i32 0, i32 0
  store i64 %call3, ptr %coerce.dive, align 8
  call void @llvm.lifetime.start.p0(i64 8, ptr %ref.tmp) #9
  call void @llvm.lifetime.start.p0(i64 16, ptr %ref.tmp4) #9
  %vtable = load ptr, ptr %this1, align 8, !tbaa !10
  %vfn = getelementptr inbounds ptr, ptr %vtable, i64 6
  %1 = load ptr, ptr %vfn, align 8
  call void %1(ptr dead_on_unwind writable sret(%"class.QuantLib::Calendar") align 8 %ref.tmp4, ptr noundef nonnull align 8 dereferenceable(64) %this1)
  %vtable5 = load ptr, ptr %this1, align 8, !tbaa !10
  %vfn6 = getelementptr inbounds ptr, ptr %vtable5, i64 7
  %2 = load ptr, ptr %vfn6, align 8
  %call7 = invoke noundef i32 %2(ptr noundef nonnull align 8 dereferenceable(64) %this1)
          to label %invoke.cont unwind label %lpad

invoke.cont:                                      ; preds = %if.then
  %call9 = invoke i64 @_ZNK8QuantLib8Calendar7advanceERKNS_4DateEiNS_8TimeUnitENS_21BusinessDayConventionEb(ptr noundef nonnull align 8 dereferenceable(16) %ref.tmp4, ptr noundef nonnull align 8 dereferenceable(8) %today, i32 noundef %call7, i32 noundef 0, i32 noundef 0, i1 noundef zeroext false)
          to label %invoke.cont8 unwind label %lpad

invoke.cont8:                                     ; preds = %invoke.cont
  %coerce.dive10 = getelementptr inbounds nuw %"class.QuantLib::Date", ptr %ref.tmp, i32 0, i32 0
  store i64 %call9, ptr %coerce.dive10, align 8
  %referenceDate_ = getelementptr inbounds nuw %"class.QuantLib::TermStructure", ptr %this1, i32 0, i32 4
  call void @llvm.memcpy.p0.p0.i64(ptr align 8 %referenceDate_, ptr align 8 %ref.tmp, i64 8, i1 false), !tbaa.struct !26
  call void @_ZN8QuantLib8CalendarD2Ev(ptr noundef nonnull align 8 dereferenceable(16) %ref.tmp4) #9
  call void @llvm.lifetime.end.p0(i64 16, ptr %ref.tmp4) #9
  call void @llvm.lifetime.end.p0(i64 8, ptr %ref.tmp) #9
  %updated_11 = getelementptr inbounds nuw %"class.QuantLib::TermStructure", ptr %this1, i32 0, i32 2
  store i8 1, ptr %updated_11, align 2, !tbaa !23
  call void @llvm.lifetime.end.p0(i64 8, ptr %today) #9
  br label %if.end

lpad:                                             ; preds = %invoke.cont, %if.then
  %3 = landingpad { ptr, i32 }
          cleanup
  %4 = extractvalue { ptr, i32 } %3, 0
  store ptr %4, ptr %exn.slot, align 8
  %5 = extractvalue { ptr, i32 } %3, 1
  store i32 %5, ptr %ehselector.slot, align 4
  call void @_ZN8QuantLib8CalendarD2Ev(ptr noundef nonnull align 8 dereferenceable(16) %ref.tmp4) #9
  call void @llvm.lifetime.end.p0(i64 16, ptr %ref.tmp4) #9
  call void @llvm.lifetime.end.p0(i64 8, ptr %ref.tmp) #9
  call void @llvm.lifetime.end.p0(i64 8, ptr %today) #9
  br label %eh.resume

if.end:                                           ; preds = %invoke.cont8, %entry
  %referenceDate_12 = getelementptr inbounds nuw %"class.QuantLib::TermStructure", ptr %this1, i32 0, i32 4
  ret ptr %referenceDate_12

eh.resume:                                        ; preds = %lpad
  %exn = load ptr, ptr %exn.slot, align 8
  %sel = load i32, ptr %ehselector.slot, align 4
  %lpad.val = insertvalue { ptr, i32 } poison, ptr %exn, 0
  %lpad.val13 = insertvalue { ptr, i32 } %lpad.val, i32 %sel, 1
  resume { ptr, i32 } %lpad.val13
}