; Function Attrs: mustprogress uwtable
define noundef nonnull align 8 dereferenceable(8) ptr @_ZNK8QuantLib13TermStructure13referenceDateEv(ptr noundef nonnull align 8 dereferenceable(64) %this) unnamed_addr #3 align 2 personality ptr @__gxx_personality_v0 {
entry:
  %ref.tmp.i = alloca %"class.QuantLib::Date", align 8
  %today = alloca %"class.QuantLib::Date", align 8
  %ref.tmp4 = alloca %"class.QuantLib::Calendar", align 8
  %updated_ = getelementptr inbounds nuw i8, ptr %this, i64 10
  %0 = load i8, ptr %updated_, align 2, !tbaa !21, !range !42, !noundef !43
  %loadedv = trunc nuw i8 %0 to i1
  br i1 %loadedv, label %if.end, label %if.then

if.then:                                          ; preds = %entry
  call void @llvm.lifetime.start.p0(i64 8, ptr nonnull %today) #22
  %1 = load atomic i8, ptr @_ZGVZN8QuantLib9SingletonINS_8SettingsESt17integral_constantIbLb0EEE8instanceEvE8instance acquire, align 8
  %guard.uninitialized.i = icmp eq i8 %1, 0
  br i1 %guard.uninitialized.i, label %init.check.i, label %_ZN8QuantLib9SingletonINS_8SettingsESt17integral_constantIbLb0EEE8instanceEv.exit, !prof !27

init.check.i:                                     ; preds = %if.then
  %2 = tail call i32 @__cxa_guard_acquire(ptr nonnull @_ZGVZN8QuantLib9SingletonINS_8SettingsESt17integral_constantIbLb0EEE8instanceEvE8instance) #22
  %tobool.not.i = icmp eq i32 %2, 0
  br i1 %tobool.not.i, label %_ZN8QuantLib9SingletonINS_8SettingsESt17integral_constantIbLb0EEE8instanceEv.exit, label %init.i

init.i:                                           ; preds = %init.check.i
  invoke void @_ZN8QuantLib8SettingsC1Ev(ptr noundef nonnull align 8 dereferenceable(28) @_ZZN8QuantLib9SingletonINS_8SettingsESt17integral_constantIbLb0EEE8instanceEvE8instance)
          to label %invoke.cont.i unwind label %lpad.i

invoke.cont.i:                                    ; preds = %init.i
  %3 = tail call i32 @__cxa_atexit(ptr nonnull @_ZN8QuantLib8SettingsD2Ev, ptr nonnull @_ZZN8QuantLib9SingletonINS_8SettingsESt17integral_constantIbLb0EEE8instanceEvE8instance, ptr nonnull @__dso_handle) #22
  tail call void @__cxa_guard_release(ptr nonnull @_ZGVZN8QuantLib9SingletonINS_8SettingsESt17integral_constantIbLb0EEE8instanceEvE8instance) #22
  br label %_ZN8QuantLib9SingletonINS_8SettingsESt17integral_constantIbLb0EEE8instanceEv.exit

common.resume:                                    ; preds = %lpad, %lpad.i
  %common.resume.op = phi { ptr, i32 } [ %4, %lpad.i ], [ %16, %lpad ]
  resume { ptr, i32 } %common.resume.op

lpad.i:                                           ; preds = %init.i
  %4 = landingpad { ptr, i32 }
          cleanup
  tail call void @__cxa_guard_abort(ptr nonnull @_ZGVZN8QuantLib9SingletonINS_8SettingsESt17integral_constantIbLb0EEE8instanceEvE8instance) #22
  br label %common.resume

_ZN8QuantLib9SingletonINS_8SettingsESt17integral_constantIbLb0EEE8instanceEv.exit: ; preds = %if.then, %init.check.i, %invoke.cont.i
  call void @llvm.lifetime.start.p0(i64 8, ptr nonnull %ref.tmp.i) #22
  call void @_ZN8QuantLib4DateC1Ev(ptr noundef nonnull align 8 dereferenceable(8) %ref.tmp.i)
  %5 = load i64, ptr @_ZZN8QuantLib9SingletonINS_8SettingsESt17integral_constantIbLb0EEE8instanceEvE8instance, align 8, !tbaa !26
  %6 = load i64, ptr %ref.tmp.i, align 8, !tbaa !44
  %cmp.i.i = icmp eq i64 %5, %6
  call void @llvm.lifetime.end.p0(i64 8, ptr nonnull %ref.tmp.i) #22
  br i1 %cmp.i.i, label %if.then.i, label %_ZNK8QuantLib8Settings9DateProxycvNS_4DateEEv.exit

if.then.i:                                        ; preds = %_ZN8QuantLib9SingletonINS_8SettingsESt17integral_constantIbLb0EEE8instanceEv.exit
  %call3.i = call i64 @_ZN8QuantLib4Date10todaysDateEv()
  br label %_ZNK8QuantLib8Settings9DateProxycvNS_4DateEEv.exit

_ZNK8QuantLib8Settings9DateProxycvNS_4DateEEv.exit: ; preds = %_ZN8QuantLib9SingletonINS_8SettingsESt17integral_constantIbLb0EEE8instanceEv.exit, %if.then.i
  %retval.sroa.0.0.i = phi i64 [ %call3.i, %if.then.i ], [ %5, %_ZN8QuantLib9SingletonINS_8SettingsESt17integral_constantIbLb0EEE8instanceEv.exit ]
  store i64 %retval.sroa.0.0.i, ptr %today, align 8
  call void @llvm.lifetime.start.p0(i64 16, ptr nonnull %ref.tmp4) #22
  %vtable = load ptr, ptr %this, align 8, !tbaa !3
  %vfn = getelementptr inbounds i8, ptr %vtable, i64 48
  %7 = load ptr, ptr %vfn, align 8
  call void %7(ptr dead_on_unwind nonnull writable sret(%"class.QuantLib::Calendar") align 8 %ref.tmp4, ptr noundef nonnull align 8 dereferenceable(64) %this)
  %vtable5 = load ptr, ptr %this, align 8, !tbaa !3
  %vfn6 = getelementptr inbounds i8, ptr %vtable5, i64 56
  %8 = load ptr, ptr %vfn6, align 8
  %call7 = invoke noundef i32 %8(ptr noundef nonnull align 8 dereferenceable(64) %this)
          to label %invoke.cont unwind label %lpad

invoke.cont:                                      ; preds = %_ZNK8QuantLib8Settings9DateProxycvNS_4DateEEv.exit
  %call9 = invoke i64 @_ZNK8QuantLib8Calendar7advanceERKNS_4DateEiNS_8TimeUnitENS_21BusinessDayConventionEb(ptr noundef nonnull align 8 dereferenceable(16) %ref.tmp4, ptr noundef nonnull align 8 dereferenceable(8) %today, i32 noundef %call7, i32 noundef 0, i32 noundef 0, i1 noundef zeroext false)
          to label %invoke.cont8 unwind label %lpad

invoke.cont8:                                     ; preds = %invoke.cont
  %referenceDate_ = getelementptr inbounds nuw i8, ptr %this, i64 32
  store i64 %call9, ptr %referenceDate_, align 8, !tbaa !26
  %pn.i.i = getelementptr inbounds nuw i8, ptr %ref.tmp4, i64 8
  %9 = load ptr, ptr %pn.i.i, align 8, !tbaa !24
  %cmp.not.i.i.i = icmp eq ptr %9, null
  br i1 %cmp.not.i.i.i, label %_ZN8QuantLib8CalendarD2Ev.exit, label %if.then.i.i.i

if.then.i.i.i:                                    ; preds = %invoke.cont8
  %use_count_.i.i.i.i = getelementptr inbounds nuw i8, ptr %9, i64 8
  %10 = atomicrmw sub ptr %use_count_.i.i.i.i, i32 1 acq_rel, align 4
  %cmp.i.i.i.i = icmp eq i32 %10, 1
  br i1 %cmp.i.i.i.i, label %if.then.i.i.i.i, label %_ZN8QuantLib8CalendarD2Ev.exit

if.then.i.i.i.i:                                  ; preds = %if.then.i.i.i
  %vtable.i.i.i.i = load ptr, ptr %9, align 8, !tbaa !3
  %vfn.i.i.i.i = getelementptr inbounds i8, ptr %vtable.i.i.i.i, i64 16
  %11 = load ptr, ptr %vfn.i.i.i.i, align 8
  invoke void %11(ptr noundef nonnull align 8 dereferenceable(16) %9)
          to label %.noexc.i.i.i unwind label %terminate.lpad.i.i.i

.noexc.i.i.i:                                     ; preds = %if.then.i.i.i.i
  %weak_count_.i.i.i.i.i = getelementptr inbounds nuw i8, ptr %9, i64 12
  %12 = atomicrmw sub ptr %weak_count_.i.i.i.i.i, i32 1 acq_rel, align 4
  %cmp.i.i.i.i.i = icmp eq i32 %12, 1
  br i1 %cmp.i.i.i.i.i, label %if.then.i.i.i.i.i, label %_ZN8QuantLib8CalendarD2Ev.exit

if.then.i.i.i.i.i:                                ; preds = %.noexc.i.i.i
  %vtable.i.i.i.i.i = load ptr, ptr %9, align 8, !tbaa !3
  %vfn.i.i.i.i.i = getelementptr inbounds i8, ptr %vtable.i.i.i.i.i, i64 24
  %13 = load ptr, ptr %vfn.i.i.i.i.i, align 8
  invoke void %13(ptr noundef nonnull align 8 dereferenceable(16) %9)
          to label %_ZN8QuantLib8CalendarD2Ev.exit unwind label %terminate.lpad.i.i.i

terminate.lpad.i.i.i:                             ; preds = %if.then.i.i.i.i.i, %if.then.i.i.i.i
  %14 = landingpad { ptr, i32 }
          catch ptr null
  %15 = extractvalue { ptr, i32 } %14, 0
  call void @__clang_call_terminate(ptr %15) #23
  unreachable

_ZN8QuantLib8CalendarD2Ev.exit:                   ; preds = %invoke.cont8, %if.then.i.i.i, %.noexc.i.i.i, %if.then.i.i.i.i.i
  call void @llvm.lifetime.end.p0(i64 16, ptr nonnull %ref.tmp4) #22
  store i8 1, ptr %updated_, align 2, !tbaa !21
  call void @llvm.lifetime.end.p0(i64 8, ptr nonnull %today) #22
  br label %if.end

lpad:                                             ; preds = %invoke.cont, %_ZNK8QuantLib8Settings9DateProxycvNS_4DateEEv.exit
  %16 = landingpad { ptr, i32 }
          cleanup
  call void @_ZN8QuantLib8CalendarD2Ev(ptr noundef nonnull align 8 dereferenceable(16) %ref.tmp4) #22
  call void @llvm.lifetime.end.p0(i64 16, ptr nonnull %ref.tmp4) #22
  call void @llvm.lifetime.end.p0(i64 8, ptr nonnull %today) #22
  br label %common.resume

if.end:                                           ; preds = %_ZN8QuantLib8CalendarD2Ev.exit, %entry
  %referenceDate_12 = getelementptr inbounds nuw i8, ptr %this, i64 32
  ret ptr %referenceDate_12
}